Certificate:
    Data:
        Version: 3 (0x2)
        Serial Number: 1 (0x1)
        Signature Algorithm: md5WithRSAEncryption
        Issuer: C=HK, ST=Hong Kong, L=Shatin, O=CUHK, OU=CSE, CN=windwild/emailAddress=windwild@windwild.net
        Validity
            Not Before: Feb  3 09:00:12 2013 GMT
            Not After : Feb  3 09:00:12 2014 GMT
        Subject: CN=windiwld, ST=Hong Kong, C=HK/emailAddress=windiwld@windwild.net, O=CUHK
        Subject Public Key Info:
            Public Key Algorithm: rsaEncryption
            RSA Public Key: (1024 bit)
                Modulus (1024 bit):
                    00:ef:5b:75:f3:18:61:c2:2d:48:0d:e0:71:48:24:
                    b9:a5:b3:67:67:76:79:c4:03:1f:d5:68:d2:49:42:
                    71:59:0e:1c:36:f5:75:88:8c:87:e1:49:4e:96:26:
                    dc:9a:af:0c:a6:6e:9e:80:8c:4a:5e:1a:4f:c0:5e:
                    94:fe:c4:fc:a7:41:73:13:da:8e:bc:68:d5:f0:17:
                    85:35:8b:9f:01:a6:08:24:f4:29:61:a2:bf:ed:0f:
                    ea:7c:37:6f:9e:a1:18:33:4d:ce:64:dd:a3:1d:ad:
                    0e:0a:2a:30:e6:b1:bf:4e:0f:c0:e6:ac:7d:c7:7f:
                    f4:28:f8:62:62:4b:d2:ec:03
                Exponent: 65537 (0x10001)
        X509v3 extensions:
            X509v3 Basic Constraints: 
                CA:FALSE
    Signature Algorithm: md5WithRSAEncryption
        44:97:ca:fb:cc:2d:2e:e2:16:b5:db:33:28:1b:4a:aa:90:79:
        33:76:28:dd:ae:05:00:b8:fd:d7:a1:c0:98:dc:92:1f:86:82:
        92:d1:ce:30:7f:39:b5:60:db:18:01:8a:d6:b6:a4:e8:83:4a:
        1b:36:bc:5e:48:2b:30:9e:07:36:16:53:49:b0:c4:13:41:79:
        ba:e6:5a:ec:13:8f:82:5a:85:db:aa:26:2e:86:67:6e:9a:ba:
        55:c1:29:a4:92:94:9d:d9:53:de:29:4f:fe:96:bd:56:52:ec:
        3b:83:b9:47:67:a8:81:e4:cf:23:b1:6c:8d:a8:2a:51:0f:1a:
        7d:82
-----BEGIN CERTIFICATE-----
MIICdTCCAd6gAwIBAgIBATANBgkqhkiG9w0BAQQFADCBiDELMAkGA1UEBhMCSEsx
EjAQBgNVBAgTCUhvbmcgS29uZzEPMA0GA1UEBxMGU2hhdGluMQ0wCwYDVQQKEwRD
VUhLMQwwCgYDVQQLEwNDU0UxETAPBgNVBAMTCHdpbmR3aWxkMSQwIgYJKoZIhvcN
AQkBFhV3aW5kd2lsZEB3aW5kd2lsZC5uZXQwHhcNMTMwMjAzMDkwMDEyWhcNMTQw
MjAzMDkwMDEyWjBpMREwDwYDVQQDEwh3aW5kaXdsZDESMBAGA1UECBMJSG9uZyBL
b25nMQswCQYDVQQGEwJISzEkMCIGCSqGSIb3DQEJARYVd2luZGl3bGRAd2luZHdp
bGQubmV0MQ0wCwYDVQQKEwRDVUhLMIGfMA0GCSqGSIb3DQEBAQUAA4GNADCBiQKB
gQDvW3XzGGHCLUgN4HFIJLmls2dndnnEAx/VaNJJQnFZDhw29XWIjIfhSU6WJtya
rwymbp6AjEpeGk/AXpT+xPynQXMT2o68aNXwF4U1i58Bpggk9Clhor/tD+p8N2+e
oRgzTc5k3aMdrQ4KKjDmsb9OD8DmrH3Hf/Qo+GJiS9LsAwIDAQABow0wCzAJBgNV
HRMEAjAAMA0GCSqGSIb3DQEBBAUAA4GBAESXyvvMLS7iFrXbMygbSqqQeTN2KN2u
BQC4/dehwJjckh+GgpLRzjB/ObVg2xgBita2pOiDShs2vF5IKzCeBzYWU0mwxBNB
ebrmWuwTj4JahduqJi6GZ26aulXBKaSSlJ3ZU94pT/6WvVZS7DuDuUdnqIHkzyOx
bI2oKlEPGn2C
-----END CERTIFICATE-----
